target datalayout = "e-m:e-p270:32:32-p271:32:32-p272:64:64-i64:64-i128:128-f80:128-n8:16:32:64-S128"
target triple = "x86_64-pc-linux-gnu"

%struct.H5FL_blk_head_t = type { i8, i32, i32, i64, ptr, ptr }
%struct.H5FL_seq_head_t = type { %struct.H5FL_blk_head_t, i64 }

@H5FL_init_g = global i8 0, align 1
@H5_libterm_g = external global i8, align 1

; Function Attrs: nounwind uwtable
define noalias ptr @H5FL_seq_malloc(ptr noundef %0, i64 noundef %1) #0 {
  %3 = alloca ptr, align 8
  %4 = alloca i64, align 8
  %5 = alloca ptr, align 8
  store ptr %0, ptr %3, align 8, !tbaa !118
  store i64 %1, ptr %4, align 8, !tbaa !11
  call void @llvm.lifetime.start.p0(i64 8, ptr %5) #9
  store ptr null, ptr %5, align 8, !tbaa !69
  %6 = load i8, ptr @H5FL_init_g, align 1, !tbaa !7, !range !9, !noundef !10
  %7 = trunc i8 %6 to i1
  br i1 %7, label %12, label %8

8:                                                ; preds = %2
  %9 = load i8, ptr @H5_libterm_g, align 1, !tbaa !7, !range !9, !noundef !10
  %10 = trunc i8 %9 to i1
  %11 = xor i1 %10, true
  br label %12

12:                                               ; preds = %8, %2
  %13 = phi i1 [ false, %2 ], [ %11, %8 ]
  %14 = xor i1 %13, true
  %15 = xor i1 %14, true
  %16 = zext i1 %15 to i32
  %17 = sext i32 %16 to i64
  %18 = call i64 @llvm.expect.i64(i64 %17, i64 0)
  %19 = icmp ne i64 %18, 0
  br i1 %19, label %20, label %21

20:                                               ; preds = %12
  store i8 1, ptr @H5FL_init_g, align 1, !tbaa !7
  br label %21

21:                                               ; preds = %20, %12
  %22 = load i8, ptr @H5FL_init_g, align 1, !tbaa !7, !range !9, !noundef !10
  %23 = trunc i8 %22 to i1
  br i1 %23, label %28, label %24

24:                                               ; preds = %21
  %25 = load i8, ptr @H5_libterm_g, align 1, !tbaa !7, !range !9, !noundef !10
  %26 = trunc i8 %25 to i1
  %27 = xor i1 %26, true
  br label %28

28:                                               ; preds = %24, %21
  %29 = phi i1 [ true, %21 ], [ %27, %24 ]
  %30 = xor i1 %29, true
  %31 = xor i1 %30, true
  %32 = zext i1 %31 to i32
  %33 = sext i32 %32 to i64
  %34 = call i64 @llvm.expect.i64(i64 %33, i64 1)
  %35 = icmp ne i64 %34, 0
  br i1 %35, label %36, label %45

36:                                               ; preds = %28
  %37 = load ptr, ptr %3, align 8, !tbaa !118
  %38 = getelementptr inbounds nuw %struct.H5FL_seq_head_t, ptr %37, i32 0, i32 0
  %39 = load ptr, ptr %3, align 8, !tbaa !118
  %40 = getelementptr inbounds nuw %struct.H5FL_seq_head_t, ptr %39, i32 0, i32 1
  %41 = load i64, ptr %40, align 8, !tbaa !120
  %42 = load i64, ptr %4, align 8, !tbaa !11
  %43 = mul i64 %41, %42
  %44 = call noalias ptr @H5FL_blk_malloc(ptr noundef %38, i64 noundef %43)
  store ptr %44, ptr %5, align 8, !tbaa !69
  br label %45

45:                                               ; preds = %36, %28
  %46 = load ptr, ptr %5, align 8, !tbaa !69
  call void @llvm.lifetime.end.p0(i64 8, ptr %5) #9
  ret ptr %46
}