; Function Attrs: nounwind uwtable
define noalias ptr @H5FL_seq_malloc(ptr noundef %0, i64 noundef %1) local_unnamed_addr #0 {
  %3 = load i8, ptr @H5FL_init_g, align 1, !tbaa !3, !range !7, !noundef !8
  %4 = trunc nuw i8 %3 to i1
  %5 = load i8, ptr @H5_libterm_g, align 1, !range !7
  %6 = trunc nuw i8 %5 to i1
  %7 = select i1 %4, i1 true, i1 %6
  br i1 %7, label %8, label %.thread, !prof !15

.thread:                                          ; preds = %2
  store i8 1, ptr @H5FL_init_g, align 1, !tbaa !3
  br label %11

8:                                                ; preds = %2
  %9 = xor i1 %6, true
  %10 = select i1 %4, i1 true, i1 %9
  br i1 %10, label %11, label %16, !prof !87

11:                                               ; preds = %.thread, %8
  %12 = getelementptr inbounds nuw i8, ptr %0, i64 40
  %13 = load i64, ptr %12, align 8, !tbaa !121
  %14 = mul i64 %13, %1
  %15 = tail call noalias ptr @H5FL_blk_malloc(ptr noundef %0, i64 noundef %14)
  br label %16

16:                                               ; preds = %11, %8
  %.0 = phi ptr [ %15, %11 ], [ null, %8 ]
  ret ptr %.0
}